target datalayout = "e-m:e-p270:32:32-p271:32:32-p272:64:64-i64:64-i128:128-f80:128-n8:16:32:64-S128"
target triple = "x86_64-pc-linux-gnu"

%struct.b2World = type { %struct.b2ArenaAllocator, %struct.b2BroadPhase, %struct.b2ConstraintGraph, %struct.b2IdPool, %struct.b2BodyArray, %struct.b2IdPool, %struct.b2SolverSetArray, %struct.b2IdPool, %struct.b2JointArray, %struct.b2IdPool, %struct.b2ContactArray, %struct.b2IdPool, %struct.b2IslandArray, %struct.b2IdPool, %struct.b2IdPool, %struct.b2ShapeArray, %struct.b2ChainShapeArray, %struct.b2SensorArray, %struct.b2TaskContextArray, %struct.b2SensorTaskContextArray, %struct.b2BodyMoveEventArray, %struct.b2SensorBeginTouchEventArray, %struct.b2ContactBeginTouchEventArray, [2 x %struct.b2SensorEndTouchEventArray], [2 x %struct.b2ContactEndTouchEventArray], i32, %struct.b2ContactHitEventArray, %struct.b2BitSet, %struct.b2BitSet, %struct.b2BitSet, i64, i32, %struct.b2Vec2, float, float, float, float, float, float, float, float, ptr, ptr, i16, %struct.b2Profile, ptr, ptr, ptr, ptr, i32, ptr, ptr, ptr, ptr, ptr, float, i32, i32, i16, i8, i8, i8, i8, i8, i8 }
%struct.b2ArenaAllocator = type { ptr, i32, i32, i32, i32, %struct.b2ArenaEntryArray }
%struct.b2ArenaEntryArray = type { ptr, i32, i32 }
%struct.b2BroadPhase = type { [3 x %struct.b2DynamicTree], i32, %struct.b2HashSet, %struct.b2IntArray, ptr, ptr, i32, %struct.b2AtomicInt, %struct.b2HashSet }
%struct.b2DynamicTree = type { ptr, i32, i32, i32, i32, i32, ptr, ptr, ptr, ptr, i32 }
%struct.b2IntArray = type { ptr, i32, i32 }
%struct.b2AtomicInt = type { i32 }
%struct.b2HashSet = type { ptr, i32, i32 }
%struct.b2ConstraintGraph = type { [12 x %struct.b2GraphColor] }
%struct.b2GraphColor = type { %struct.b2BitSet, %struct.b2ContactSimArray, %struct.b2JointSimArray, %union.anon }
%struct.b2ContactSimArray = type { ptr, i32, i32 }
%struct.b2JointSimArray = type { ptr, i32, i32 }
%union.anon = type { ptr }
%struct.b2BodyArray = type { ptr, i32, i32 }
%struct.b2SolverSetArray = type { ptr, i32, i32 }
%struct.b2JointArray = type { ptr, i32, i32 }
%struct.b2ContactArray = type { ptr, i32, i32 }
%struct.b2IslandArray = type { ptr, i32, i32 }
%struct.b2IdPool = type { %struct.b2IntArray, i32 }
%struct.b2ShapeArray = type { ptr, i32, i32 }
%struct.b2ChainShapeArray = type { ptr, i32, i32 }
%struct.b2SensorArray = type { ptr, i32, i32 }
%struct.b2TaskContextArray = type { ptr, i32, i32 }
%struct.b2SensorTaskContextArray = type { ptr, i32, i32 }
%struct.b2BodyMoveEventArray = type { ptr, i32, i32 }
%struct.b2SensorBeginTouchEventArray = type { ptr, i32, i32 }
%struct.b2ContactBeginTouchEventArray = type { ptr, i32, i32 }
%struct.b2SensorEndTouchEventArray = type { ptr, i32, i32 }
%struct.b2ContactEndTouchEventArray = type { ptr, i32, i32 }
%struct.b2ContactHitEventArray = type { ptr, i32, i32 }
%struct.b2BitSet = type { ptr, i32, i32 }
%struct.b2Vec2 = type { float, float }
%struct.b2Profile = type { float, float, float, float, float, float, float, float, float, float, float, float, float, float, float, float, float, float, float, float, float, float }
%struct.b2WorldId = type { i16, i16 }

@b2_worlds = hidden global [128 x %struct.b2World] zeroinitializer, align 16

; Function Attrs: nounwind uwtable
define zeroext i1 @b2World_IsValid(i32 %0) #0 {
  %2 = alloca i1, align 1
  %3 = alloca %struct.b2WorldId, align 2
  %4 = alloca ptr, align 8
  %5 = alloca i32, align 4
  store i32 %0, ptr %3, align 2
  %6 = getelementptr inbounds nuw %struct.b2WorldId, ptr %3, i32 0, i32 0
  %7 = load i16, ptr %6, align 2, !tbaa !44
  %8 = zext i16 %7 to i32
  %9 = icmp slt i32 %8, 1
  br i1 %9, label %15, label %10

10:                                               ; preds = %1
  %11 = getelementptr inbounds nuw %struct.b2WorldId, ptr %3, i32 0, i32 0
  %12 = load i16, ptr %11, align 2, !tbaa !44
  %13 = zext i16 %12 to i32
  %14 = icmp slt i32 128, %13
  br i1 %14, label %15, label %16

15:                                               ; preds = %10, %1
  store i1 false, ptr %2, align 1
  br label %43

16:                                               ; preds = %10
  call void @llvm.lifetime.start.p0(i64 8, ptr %4) #10
  %17 = getelementptr inbounds nuw %struct.b2WorldId, ptr %3, i32 0, i32 0
  %18 = load i16, ptr %17, align 2, !tbaa !44
  %19 = zext i16 %18 to i32
  %20 = sub nsw i32 %19, 1
  %21 = sext i32 %20 to i64
  %22 = getelementptr inbounds %struct.b2World, ptr @b2_worlds, i64 %21
  store ptr %22, ptr %4, align 8, !tbaa !47
  %23 = load ptr, ptr %4, align 8, !tbaa !47
  %24 = getelementptr inbounds nuw %struct.b2World, ptr %23, i32 0, i32 58
  %25 = load i16, ptr %24, align 4, !tbaa !126
  %26 = zext i16 %25 to i32
  %27 = getelementptr inbounds nuw %struct.b2WorldId, ptr %3, i32 0, i32 0
  %28 = load i16, ptr %27, align 2, !tbaa !44
  %29 = zext i16 %28 to i32
  %30 = sub nsw i32 %29, 1
  %31 = icmp ne i32 %26, %30
  br i1 %31, label %32, label %33

32:                                               ; preds = %16
  store i1 false, ptr %2, align 1
  store i32 1, ptr %5, align 4
  br label %42

33:                                               ; preds = %16
  %34 = getelementptr inbounds nuw %struct.b2WorldId, ptr %3, i32 0, i32 1
  %35 = load i16, ptr %34, align 2, !tbaa !97
  %36 = zext i16 %35 to i32
  %37 = load ptr, ptr %4, align 8, !tbaa !47
  %38 = getelementptr inbounds nuw %struct.b2World, ptr %37, i32 0, i32 43
  %39 = load i16, ptr %38, align 8, !tbaa !98
  %40 = zext i16 %39 to i32
  %41 = icmp eq i32 %36, %40
  store i1 %41, ptr %2, align 1
  store i32 1, ptr %5, align 4
  br label %42

42:                                               ; preds = %33, %32
  call void @llvm.lifetime.end.p0(i64 8, ptr %4) #10
  br label %43

43:                                               ; preds = %42, %15
  %44 = load i1, ptr %2, align 1
  ret i1 %44
}